; Function Attrs: mustprogress uwtable
define void @_ZN3nix6Source5drainB5cxx11Ev(ptr dead_on_unwind noalias writable sret(%"class.std::__cxx11::basic_string") align 8 %0, ptr noundef nonnull align 8 dereferenceable(8) %1) local_unnamed_addr #2 align 2 personality ptr @__gxx_personality_v0 {
  %3 = alloca %"class.std::allocator.0", align 1
  %4 = alloca %"struct.nix::StringSink", align 8
  store ptr getelementptr inbounds ({ [6 x ptr] }, ptr @_ZTVN3nix10StringSinkE, i64 0, i32 0, i64 2), ptr %4, align 8
  %5 = getelementptr inbounds i8, ptr %4, i64 8
  call void @llvm.lifetime.start.p0(i64 1, ptr nonnull %3)
  %6 = getelementptr inbounds i8, ptr %4, i64 24
  call void @_ZNSaIcEC1Ev(ptr noundef nonnull align 1 dereferenceable(1) %3) #34
  call void @_ZNSaIcEC2ERKS_(ptr noundef nonnull align 1 dereferenceable(1) %5, ptr noundef nonnull align 1 dereferenceable(1) %3) #34
  store ptr %6, ptr %5, align 8
  call void @_ZNSaIcED1Ev(ptr noundef nonnull align 1 dereferenceable(1) %3) #34
  %7 = getelementptr inbounds i8, ptr %4, i64 16
  store i64 0, ptr %7, align 8
  %8 = load ptr, ptr %5, align 8
  store i8 0, ptr %8, align 1
  call void @llvm.lifetime.end.p0(i64 1, ptr nonnull %3)
  invoke void @_ZN3nix6Source9drainIntoERNS_4SinkE(ptr noundef nonnull align 8 dereferenceable(8) %1, ptr noundef nonnull align 8 dereferenceable(8) %4)
          to label %9 unwind label %20

9:                                                ; preds = %2
  %10 = getelementptr inbounds i8, ptr %0, i64 16
  call void @_ZNSaIcEC2ERKS_(ptr noundef nonnull align 1 dereferenceable(1) %0, ptr noundef nonnull align 1 dereferenceable(1) %5) #34
  store ptr %10, ptr %0, align 8
  %11 = load ptr, ptr %5, align 8
  %12 = icmp eq ptr %11, %6
  br i1 %12, label %13, label %_ZNKSt7__cxx1112basic_stringIcSt11char_traitsIcESaIcEE11_M_is_localEv.exit.i

13:                                               ; preds = %9
  %14 = load i64, ptr %7, align 8
  %15 = icmp ult i64 %14, 16
  call void @llvm.assume(i1 %15)
  %16 = add nuw nsw i64 %14, 1
  call void @llvm.memcpy.p0.p0.i64(ptr noundef nonnull align 8 dereferenceable(1) %10, ptr noundef nonnull align 8 dereferenceable(1) %6, i64 %16, i1 false)
  br label %_ZN3nix10StringSinkD2Ev.exit

_ZNKSt7__cxx1112basic_stringIcSt11char_traitsIcESaIcEE11_M_is_localEv.exit.i: ; preds = %9
  store ptr %11, ptr %0, align 8
  %17 = load i64, ptr %6, align 8
  store i64 %17, ptr %10, align 8
  %.pre = load i64, ptr %7, align 8
  br label %_ZN3nix10StringSinkD2Ev.exit

_ZN3nix10StringSinkD2Ev.exit:                     ; preds = %13, %_ZNKSt7__cxx1112basic_stringIcSt11char_traitsIcESaIcEE11_M_is_localEv.exit.i
  %18 = phi i64 [ %14, %13 ], [ %.pre, %_ZNKSt7__cxx1112basic_stringIcSt11char_traitsIcESaIcEE11_M_is_localEv.exit.i ]
  %19 = getelementptr inbounds i8, ptr %0, i64 8
  store i64 %18, ptr %19, align 8
  store ptr %6, ptr %5, align 8
  store i64 0, ptr %7, align 8
  store i8 0, ptr %6, align 8
  store ptr getelementptr inbounds ({ [6 x ptr] }, ptr @_ZTVN3nix10StringSinkE, i64 0, i32 0, i64 2), ptr %4, align 8
  call void @_ZNSaIcED2Ev(ptr noundef nonnull align 1 dereferenceable(1) %5) #34
  ret void

20:                                               ; preds = %2
  %21 = landingpad { ptr, i32 }
          cleanup
  call void @_ZN3nix10StringSinkD2Ev(ptr noundef nonnull align 8 dereferenceable(40) %4) #34
  resume { ptr, i32 } %21
}